target datalayout = "e-m:e-p270:32:32-p271:32:32-p272:64:64-i64:64-i128:128-f80:128-n8:16:32:64-S128"
target triple = "x86_64-pc-linux-gnu"

%struct.bignum_st = type { ptr, i32, i32, i32, i32 }

; Function Attrs: nounwind uwtable
define hidden void @BN_with_flags(ptr noundef %0, ptr noundef %1, i32 noundef %2) #0 {
  %4 = alloca ptr, align 8
  %5 = alloca ptr, align 8
  %6 = alloca i32, align 4
  store ptr %0, ptr %4, align 8, !tbaa !6
  store ptr %1, ptr %5, align 8, !tbaa !6
  store i32 %2, ptr %6, align 4, !tbaa !23
  %7 = load ptr, ptr %4, align 8, !tbaa !6
  %8 = load ptr, ptr %5, align 8, !tbaa !6
  call void @llvm.memcpy.p0.p0.i64(ptr align 8 %7, ptr align 8 %8, i64 24, i1 false)
  %9 = load ptr, ptr %4, align 8, !tbaa !6
  %10 = getelementptr inbounds nuw %struct.bignum_st, ptr %9, i32 0, i32 4
  %11 = load i32, ptr %10, align 4, !tbaa !11
  %12 = and i32 %11, -2
  store i32 %12, ptr %10, align 4, !tbaa !11
  %13 = load i32, ptr %6, align 4, !tbaa !23
  %14 = or i32 2, %13
  %15 = load ptr, ptr %4, align 8, !tbaa !6
  %16 = getelementptr inbounds nuw %struct.bignum_st, ptr %15, i32 0, i32 4
  %17 = load i32, ptr %16, align 4, !tbaa !11
  %18 = or i32 %17, %14
  store i32 %18, ptr %16, align 4, !tbaa !11
  ret void
}