; Function Attrs: mustprogress nofree norecurse nosync nounwind willreturn memory(argmem: readwrite) uwtable
define hidden void @BN_with_flags(ptr noundef captures(none) initializes((0, 24)) %0, ptr noundef readonly captures(none) %1, i32 noundef %2) local_unnamed_addr #10 {
  tail call void @llvm.memcpy.p0.p0.i64(ptr noundef nonnull align 8 dereferenceable(24) %0, ptr noundef nonnull align 8 dereferenceable(24) %1, i64 24, i1 false)
  %4 = getelementptr inbounds nuw i8, ptr %0, i64 20
  %5 = load i32, ptr %4, align 4, !tbaa !6
  %6 = and i32 %5, -4
  %7 = or i32 %2, %6
  %8 = or i32 %7, 2
  store i32 %8, ptr %4, align 4, !tbaa !6
  ret void
}